ccollections
defaultdict
p1
(c__builtin__
list
p2
tRp3
S'pasikudah'
p4
(lp5
(dp6
S'usd'
p7
S'17'
p8
sS'rupee'
p9
S'2500'
p10
sS'baticloa'
p11
S'15:00'
p12
sa(dp13
g7
g8
sg9
g10
sg11
S'22:30'
p14
sa(dp15
g7
g8
sg9
g10
sg11
S'09:00'
p16
sa(dp17
g7
S'23'
p18
sg9
S'3500'
p19
sS'baticloa'
p20
S'11:00'
p21
sa(dp22
g7
g18
sg9
g19
sg20
S'03:15'
p23
sa(dp24
g7
g18
sg9
g19
sg20
S''
sa(dp25
g7
g18
sg9
g19
sS'trinco'
p26
S'17:30'
p27
sa(dp28
g7
g18
sg9
g19
sg26
S'09:30'
p29
sa(dp30
g7
g18
sg9
g19
sg26
S''
sasS'dambula'
p31
(lp32
(dp33
g9
g10
sg7
g8
sS'polonaruwa'
p34
S'08:00'
p35
sa(dp36
g9
g10
sg7
g8
sg34
S'14:45'
p37
sa(dp38
g9
g10
sg7
g8
sg34
S'21:15'
p39
sa(dp40
g9
g10
sg7
g8
sS'bia'
p41
S'00:30'
p42
sa(dp43
g9
g10
sg7
g8
sg41
S'08:00'
p44
sa(dp45
g9
g10
sg7
g8
sg41
S'18:30'
p46
sa(dp47
g9
g10
sg7
g8
sS'polonoruwa'
p48
S'09:45'
p49
sa(dp50
g9
g10
sg7
g8
sg48
S'16:30'
p51
sa(dp52
g9
g10
sg7
g8
sg48
S'23:00'
p53
sa(dp54
g9
g10
sg7
g8
sS'kandy'
p55
S'11:30'
p56
sa(dp57
g9
g10
sg7
g8
sg55
S'14:30'
p58
sa(dp59
g9
g10
sg7
g8
sg55
S'01:30'
p60
sa(dp61
g9
g10
sg7
g8
sS'polonaruwa'
p62
S'17:45'
p63
sa(dp64
g9
g10
sg7
g8
sg62
S'20:45'
p65
sa(dp66
g9
g10
sg7
g8
sg62
S'07:45'
p67
sa(dp68
g9
g10
sg7
g8
sg41
S'20:05'
p69
sa(dp70
g9
g10
sg7
g8
sg41
S'03:30'
p71
sa(dp72
g9
g10
sg7
g8
sg41
S'14:00'
p73
sasS'hikaduwa'
p74
(lp75
(dp76
S'gall'
p77
S'07:00'
p78
sg9
g10
sg7
g8
sa(dp79
g77
S'13:50'
p80
sg9
g10
sg7
g8
sa(dp81
g77
S'20:20'
p82
sg9
g10
sg7
g8
sa(dp83
g9
g10
sg7
g8
sg41
S'21:30'
p84
sa(dp85
g9
g10
sg7
g8
sg41
S'5:00'
p86
sa(dp87
g9
g10
sg7
g8
sg41
S'15:30'
p88
sasS'kandy'
p89
(lp90
(dp91
S'nuwara'
p92
S'14:30'
p93
sg7
g8
sg9
g10
sa(dp94
g92
S'17:30'
p95
sg7
g8
sg9
g10
sa(dp96
g92
S'04:30'
p97
sg7
g8
sg9
g10
sa(dp98
g7
g8
sg9
g10
sS'dambula'
p99
S'14:45'
p100
sa(dp101
g7
g8
sg9
g10
sg99
S'17:45'
p102
sa(dp103
g7
g8
sg9
g10
sg99
S'04:45'
p104
sasg34
(lp105
(dp106
g9
g10
sg7
g8
sS'trincomalee'
p107
S'09:45'
p108
sa(dp109
g9
g10
sg7
g8
sg107
S'16:30'
p110
sa(dp111
g9
g10
sg7
g8
sg107
S'23:00'
p112
sa(dp113
g7
g8
sg9
g10
sg31
S'20:30'
p114
sa(dp115
g7
g8
sg9
g10
sg31
S'04:00'
p116
sa(dp117
g7
g8
sg9
g10
sg31
S'14:30'
p118
sa(dp119
g7
g8
sg9
g10
sg11
S'09:45'
p120
sa(dp121
g7
g8
sg9
g10
sg11
S'16:30'
p122
sa(dp123
g7
g8
sg9
g10
sg11
S'23:00'
p124
sa(dp125
S'dambulla'
p126
S'18:15'
p127
sg7
g8
sg9
g10
sa(dp128
g126
S'01:45'
p129
sg7
g8
sg9
g10
sa(dp130
g126
S'12:15'
p131
sg7
g8
sg9
g10
sa(dp132
g7
g8
sg9
g10
sS'dambula'
p133
S'10:00'
p134
sa(dp135
g7
g8
sg9
g10
sg133
S'13:00'
p136
sa(dp137
g7
g8
sg9
g10
sg133
S'00:00'
p138
sasS'nuwara'
p139
(lp140
(dp141
g9
g10
sg7
g8
sS'hatton'
p142
S'17:30'
p143
sa(dp144
g9
g10
sg7
g8
sg142
S'20:30'
p145
sa(dp146
g9
g10
sg7
g8
sg142
S'07:30'
p147
sasS'trinco'
p148
(lp149
(dp150
g7
g18
sg9
g19
sS'pasikudha'
p151
S'08:30'
p152
sa(dp153
g7
g18
sg9
g19
sg151
S'00:45'
p154
sa(dp155
g7
g18
sg9
g19
sg151
S''
sa(dp156
g9
g19
sg7
g18
sS'nilaveli'
p157
S'20:45'
p158
sa(dp159
g9
g19
sg7
g18
sg157
S'12:45'
p160
sa(dp161
g9
g19
sg7
g18
sg157
S''
sasg107
(lp162
(dp163
g9
g10
sg7
g8
sS'nilaveli'
p164
S'12:45'
p165
sa(dp166
g9
g10
sg7
g8
sg164
S'19:30'
p167
sa(dp168
g9
g10
sg7
g8
sg164
S'02:00'
p169
sa(dp170
g9
g10
sg7
g8
sg48
S'18:45'
p171
sa(dp172
g9
g10
sg7
g8
sg48
S'02:15'
p173
sa(dp174
g9
g10
sg7
g8
sg48
S'12:45'
p175
sasg41
(lp176
(dp177
g9
g10
sg7
g8
sg74
S'03:40'
p178
sa(dp179
g9
g10
sg7
g8
sg74
S'10:30'
p180
sa(dp181
g9
g10
sg7
g8
sg74
S'17:00'
p182
sa(dp183
g7
g8
sg9
g10
sg31
S'03:40'
p184
sa(dp185
g7
g8
sg9
g10
sg31
S'10:30'
p186
sa(dp187
g7
g8
sg9
g10
sg31
S'17:00'
p188
sa(dp189
g7
g8
sg9
g10
sg31
S'03:40'
p190
sa(dp191
g7
g8
sg9
g10
sg31
S'10:30'
p192
sa(dp193
g7
g8
sg9
g10
sg31
S'17:00'
p194
sasS'arugam'
p195
(lp196
(dp197
S'udawalawe'
p198
S'15:15'
p199
sg9
g19
sg7
g18
sa(dp200
g198
S'07:30'
p201
sg9
g19
sg7
g18
sa(dp202
g198
S''
sg9
g19
sg7
g18
sa(dp203
g7
g18
sg9
g19
sS'baticloa'
p204
S'13:15'
p205
sa(dp206
g7
g18
sg9
g19
sg204
S'05:15'
p207
sa(dp208
g7
g18
sg9
g19
sg204
S''
sasg11
(lp209
(dp210
g4
S'12:15'
p211
sg9
g10
sg7
g8
sa(dp212
g4
S'19:00'
p213
sg9
g10
sg7
g8
sa(dp214
g4
S'01:30'
p215
sg9
g10
sg7
g8
sa(dp216
g9
g19
sg7
g18
sg34
S'16:00'
p217
sa(dp218
g9
g19
sg7
g18
sg34
S'23:30'
p219
sa(dp220
g9
g19
sg7
g18
sg34
S'10:00'
p221
sa(dp222
S'arugam'
p223
S'12:00'
p224
sg9
g10
sg7
g8
sa(dp225
g223
S'04:15'
p226
sg9
g10
sg7
g8
sa(dp227
g223
S''
sg9
g10
sg7
g8
sa(dp228
S'pasikudah'
p229
S'16:30'
p230
sg9
g19
sg7
g18
sa(dp231
g229
S'08:30'
p232
sg9
g19
sg7
g18
sa(dp233
g229
S''
sg9
g19
sg7
g18
sasS'hatton'
p234
(lp235
(dp236
g9
g10
sg7
g8
sS'nuwaraeliya'
p237
S'10:00'
p238
sa(dp239
g9
g10
sg7
g8
sg237
S'13:00'
p240
sa(dp241
g9
g10
sg7
g8
sg237
S'00:00'
p242
sa(dp243
g9
g10
sg7
g8
sS'udawalawa'
p244
S'09:45'
p245
sa(dp246
g9
g10
sg7
g8
sg244
S'13:45'
p247
sa(dp248
g9
g10
sg7
g8
sg244
S'01:45'
p249
sa(dp250
g9
g10
sg7
g8
sS'nuwaraeliya'
p251
S'14:15'
p252
sa(dp253
g9
g10
sg7
g8
sg251
S'18:15'
p254
sa(dp255
g9
g10
sg7
g8
sg251
S'06:15'
p256
sa(dp257
g9
g10
sg7
g8
sS'nuwaraeliya'
p258
S'16:15'
p259
sa(dp260
g9
g10
sg7
g8
sg258
S'20:15'
p261
sa(dp262
g9
g10
sg7
g8
sg258
S'06:15'
p263
sa(dp264
g9
g10
sg7
g8
sS'mirissa'
p265
S'09:45'
p266
sa(dp267
g9
g10
sg7
g8
sg265
S'13:45'
p268
sa(dp269
g9
g10
sg7
g8
sg265
S'23:45'
p270
sasS'nuwaraeliya'
p271
(lp272
(dp273
g9
g10
sg7
g8
sS'kandy'
p274
S'11:45'
p275
sa(dp276
g9
g10
sg7
g8
sg274
S'14:45'
p277
sa(dp278
g9
g10
sg7
g8
sg274
S'01:45'
p279
sa(dp280
g9
g10
sg7
g8
sS'hatton'
p281
S'08:00'
p282
sa(dp283
g9
g10
sg7
g8
sg281
S'12:00'
p284
sa(dp285
g9
g10
sg7
g8
sg281
S'00:00'
p286
sa(dp287
g9
g10
sg7
g8
sS'hatton'
p288
S'08:00'
p289
sa(dp290
g9
g10
sg7
g8
sg288
S'12:00'
p291
sa(dp292
g9
g10
sg7
g8
sg288
S'22:00'
p293
sasS'galle'
p294
(lp295
(dp296
g9
g10
sg7
g8
sg74
S'20:30'
p297
sa(dp298
g9
g10
sg7
g8
sg74
S'04:00'
p299
sa(dp300
g9
g10
sg7
g8
sg74
S'14:30'
p301
sa(dp302
g9
g10
sg7
g8
sS'mirissa'
p303
S'08:00'
p304
sa(dp305
g9
g10
sg7
g8
sg303
S'12:00'
p306
sa(dp307
g9
g10
sg7
g8
sg303
S'22:00'
p308
sasS'hambantota'
p309
(lp310
(dp311
S'udawalawe'
p312
S'07:30'
p313
sg9
g19
sg7
g18
sa(dp314
g312
S'23:30'
p315
sg9
g19
sg7
g18
sa(dp316
g312
S''
sg9
g19
sg7
g18
sa(dp317
g9
g10
sg7
g8
sS'udawalawa'
p318
S'08:00'
p319
sa(dp320
g9
g10
sg7
g8
sg318
S'12:00'
p321
sa(dp322
g9
g10
sg7
g8
sg318
S'00:00'
p323
sasS'udawalawa'
p324
(lp325
(dp326
S'hambantota'
p327
S'19:00'
p328
sg9
g19
sg7
g18
sa(dp329
g327
S'11:15'
p330
sg9
g19
sg7
g18
sa(dp331
g327
S''
sg9
g19
sg7
g18
sa(dp332
S'arugam'
p333
S'09:15'
p334
sg9
g19
sg7
g18
sa(dp335
g333
S'01:15'
p336
sg9
g19
sg7
g18
sa(dp337
g333
S''
sg9
g19
sg7
g18
sa(dp338
S'hambantota'
p339
S'14:15'
p340
sg9
g10
sg7
g8
sa(dp341
g339
S'18:15'
p342
sg9
g10
sg7
g8
sa(dp343
g339
S'06:15'
p344
sg9
g10
sg7
g8
sa(dp345
g9
g10
sg7
g8
sS'hatton'
p346
S'09:45'
p347
sa(dp348
g9
g10
sg7
g8
sg346
S'13:45'
p349
sa(dp350
g9
g10
sg7
g8
sg346
S'01:45'
p351
sasS'mirissa'
p352
(lp353
(dp354
g9
g10
sg7
g8
sS'hatton'
p355
S'09:30'
p356
sa(dp357
g9
g10
sg7
g8
sg355
S'13:30'
p358
sa(dp359
g9
g10
sg7
g8
sg355
S'23:30'
p360
sa(dp361
g9
g10
sg7
g8
sS'galle'
p362
S'16:30'
p363
sa(dp364
g9
g10
sg7
g8
sg362
S'20:30'
p365
sa(dp366
g9
g10
sg7
g8
sg362
S'06:30'
p367
sasg164
(lp368
(dp369
g9
g19
sg7
g18
sg107
S'15:00'
p370
sa(dp371
g9
g19
sg7
g18
sg107
S'22:30'
p372
sa(dp373
g9
g19
sg7
g18
sg107
S'09:00'
p374
sa(dp375
g7
g8
sg9
g10
sS'trinco'
p376
S'07:30'
p377
sa(dp378
g7
g8
sg9
g10
sg376
S'23:30'
p379
sa(dp380
g7
g8
sg9
g10
sg376
S''
sas.