ccollections
defaultdict
p1
(c__builtin__
list
p2
tRp3
S'pasikudah'
p4
(lp5
(dp6
S'rupee'
p7
S'2500'
p8
sS'usd'
p9
S'17'
p10
sS'name'
p11
S'baticloa'
p12
sS'time'
p13
S'15:00'
p14
sa(dp15
g7
g8
sg9
g10
sg11
g12
sg13
S'22:30'
p16
sa(dp17
g7
g8
sg9
g10
sg11
g12
sg13
S'09:00'
p18
sa(dp19
g7
S'3500'
p20
sg9
S'23'
p21
sg11
S'baticloa'
p22
sg13
S'11:00'
p23
sa(dp24
g7
g20
sg9
g21
sg11
g22
sg13
S'03:15'
p25
sa(dp26
g7
g20
sg9
g21
sg11
g22
sg13
S''
sa(dp27
g7
g20
sg9
g21
sg11
S'trinco'
p28
sg13
S'17:30'
p29
sa(dp30
g7
g20
sg9
g21
sg11
g28
sg13
S'09:30'
p31
sa(dp32
g7
g20
sg9
g21
sg11
g28
sg13
S''
sasS'trinco'
p33
(lp34
(dp35
g7
g20
sg9
g21
sg11
S'pasikudha'
p36
sg13
S'08:30'
p37
sa(dp38
g7
g20
sg9
g21
sg11
g36
sg13
S'00:45'
p39
sa(dp40
g7
g20
sg9
g21
sg11
g36
sg13
S''
sa(dp41
g7
g20
sg9
g21
sg11
S'nilaveli'
p42
sg13
S'20:45'
p43
sa(dp44
g7
g20
sg9
g21
sg11
g42
sg13
S'12:45'
p45
sa(dp46
g7
g20
sg9
g21
sg11
g42
sg13
S''
sasS'hikaduwa'
p47
(lp48
(dp49
g7
g8
sg9
g10
sg11
S'gall'
p50
sg13
S'07:00'
p51
sa(dp52
g7
g8
sg9
g10
sg11
g50
sg13
S'13:50'
p53
sa(dp54
g7
g8
sg9
g10
sg11
g50
sg13
S'20:20'
p55
sa(dp56
g7
g8
sg9
g10
sg11
S'bia'
p57
sg13
S'21:30'
p58
sa(dp59
g7
g8
sg9
g10
sg11
g57
sg13
S'5:00'
p60
sa(dp61
g7
g8
sg9
g10
sg11
g57
sg13
S'15:30'
p62
sasS'polonaruwa'
p63
(lp64
(dp65
g7
g8
sg9
g10
sg11
S'trincomalee'
p66
sg13
S'09:45'
p67
sa(dp68
g7
g8
sg9
g10
sg11
g66
sg13
S'16:30'
p69
sa(dp70
g7
g8
sg9
g10
sg11
g66
sg13
S'23:00'
p71
sa(dp72
g7
g8
sg9
g10
sg11
S'dambula'
p73
sg13
S'20:30'
p74
sa(dp75
g7
g8
sg9
g10
sg11
g73
sg13
S'04:00'
p76
sa(dp77
g7
g8
sg9
g10
sg11
g73
sg13
S'14:30'
p78
sa(dp79
g7
g8
sg9
g10
sg11
g12
sg13
S'09:45'
p80
sa(dp81
g7
g8
sg9
g10
sg11
g12
sg13
S'16:30'
p82
sa(dp83
g7
g8
sg9
g10
sg11
g12
sg13
S'23:00'
p84
sa(dp85
g7
g8
sg9
g10
sg11
S'dambulla'
p86
sg13
S'18:15'
p87
sa(dp88
g7
g8
sg9
g10
sg11
g86
sg13
S'01:45'
p89
sa(dp90
g7
g8
sg9
g10
sg11
g86
sg13
S'12:15'
p91
sa(dp92
g7
g8
sg9
g10
sg11
S'dambula'
p93
sg13
S'10:00'
p94
sa(dp95
g7
g8
sg9
g10
sg11
g93
sg13
S'13:00'
p96
sa(dp97
g7
g8
sg9
g10
sg11
g93
sg13
S'00:00'
p98
sasS'nuwara'
p99
(lp100
(dp101
g7
g8
sg9
g10
sg11
S'hatton'
p102
sg13
S'17:30'
p103
sa(dp104
g7
g8
sg9
g10
sg11
g102
sg13
S'20:30'
p105
sa(dp106
g7
g8
sg9
g10
sg11
g102
sg13
S'07:30'
p107
sasg73
(lp108
(dp109
g7
g8
sg9
g10
sg11
g63
sg13
S'08:00'
p110
sa(dp111
g7
g8
sg9
g10
sg11
g63
sg13
S'14:45'
p112
sa(dp113
g7
g8
sg9
g10
sg11
g63
sg13
S'21:15'
p114
sa(dp115
g7
g8
sg9
g10
sg11
g57
sg13
S'00:30'
p116
sa(dp117
g7
g8
sg9
g10
sg11
g57
sg13
S'08:00'
p118
sa(dp119
g7
g8
sg9
g10
sg11
g57
sg13
S'18:30'
p120
sa(dp121
g7
g8
sg9
g10
sg11
S'polonoruwa'
p122
sg13
S'09:45'
p123
sa(dp124
g7
g8
sg9
g10
sg11
g122
sg13
S'16:30'
p125
sa(dp126
g7
g8
sg9
g10
sg11
g122
sg13
S'23:00'
p127
sa(dp128
g7
g8
sg9
g10
sg11
S'kandy'
p129
sg13
S'11:30'
p130
sa(dp131
g7
g8
sg9
g10
sg11
g129
sg13
S'14:30'
p132
sa(dp133
g7
g8
sg9
g10
sg11
g129
sg13
S'01:30'
p134
sa(dp135
g7
g8
sg9
g10
sg11
S'polonaruwa'
p136
sg13
S'17:45'
p137
sa(dp138
g7
g8
sg9
g10
sg11
g136
sg13
S'20:45'
p139
sa(dp140
g7
g8
sg9
g10
sg11
g136
sg13
S'07:45'
p141
sa(dp142
g7
g8
sg9
g10
sg11
g57
sg13
S'20:05'
p143
sa(dp144
g7
g8
sg9
g10
sg11
g57
sg13
S'03:30'
p145
sa(dp146
g7
g8
sg9
g10
sg11
g57
sg13
S'14:00'
p147
sasg66
(lp148
(dp149
g7
g8
sg9
g10
sg11
S'nilaveli'
p150
sg13
S'12:45'
p151
sa(dp152
g7
g8
sg9
g10
sg11
g150
sg13
S'19:30'
p153
sa(dp154
g7
g8
sg9
g10
sg11
g150
sg13
S'02:00'
p155
sa(dp156
g7
g8
sg9
g10
sg11
g122
sg13
S'18:45'
p157
sa(dp158
g7
g8
sg9
g10
sg11
g122
sg13
S'02:15'
p159
sa(dp160
g7
g8
sg9
g10
sg11
g122
sg13
S'12:45'
p161
sasS'udawalawa'
p162
(lp163
(dp164
g7
g20
sg9
g21
sg11
S'hambantota'
p165
sg13
S'19:00'
p166
sa(dp167
g7
g20
sg9
g21
sg11
g165
sg13
S'11:15'
p168
sa(dp169
g7
g20
sg9
g21
sg11
g165
sg13
S''
sa(dp170
g7
g20
sg9
g21
sg11
S'arugam'
p171
sg13
S'09:15'
p172
sa(dp173
g7
g20
sg9
g21
sg11
g171
sg13
S'01:15'
p174
sa(dp175
g7
g20
sg9
g21
sg11
g171
sg13
S''
sa(dp176
g7
g8
sg9
g10
sg11
S'hambantota'
p177
sg13
S'14:15'
p178
sa(dp179
g7
g8
sg9
g10
sg11
g177
sg13
S'18:15'
p180
sa(dp181
g7
g8
sg9
g10
sg11
g177
sg13
S'06:15'
p182
sa(dp183
g7
g8
sg9
g10
sg11
S'hatton'
p184
sg13
S'09:45'
p185
sa(dp186
g7
g8
sg9
g10
sg11
g184
sg13
S'13:45'
p187
sa(dp188
g7
g8
sg9
g10
sg11
g184
sg13
S'01:45'
p189
sasg57
(lp190
(dp191
S'rupee'
p192
S'2500'
p193
sS'usd'
p194
S'17'
p195
sS'name'
p196
S'hikaduwa'
p197
sS'time'
p198
S'03:40'
p199
sa(dp200
g192
g193
sg194
g195
sg196
g197
sg198
S'10:30'
p201
sa(dp202
g192
g193
sg194
g195
sg196
g197
sg198
S'17:00'
p203
sa(dp204
g192
g193
sg194
g195
sg196
S'dambula'
p205
sg198
S'03:40'
p206
sa(dp207
g192
g193
sg194
g195
sg196
g205
sg198
S'10:30'
p208
sa(dp209
g192
g193
sg194
g195
sg196
g205
sg198
S'17:00'
p210
sa(dp211
g192
g193
sg194
g195
sg196
g205
sg198
S'03:40'
p212
sa(dp213
g192
g193
sg194
g195
sg196
g205
sg198
S'10:30'
p214
sa(dp215
g192
g193
sg194
g195
sg196
g205
sg198
S'17:00'
p216
sasS'arugam'
p217
(lp218
(dp219
g7
g20
sg9
g21
sg11
S'udawalawe'
p220
sg13
S'15:15'
p221
sa(dp222
g7
g20
sg9
g21
sg11
g220
sg13
S'07:30'
p223
sa(dp224
g7
g20
sg9
g21
sg11
g220
sg13
S''
sa(dp225
g7
g20
sg9
g21
sg11
S'baticloa'
p226
sg13
S'13:15'
p227
sa(dp228
g7
g20
sg9
g21
sg11
g226
sg13
S'05:15'
p229
sa(dp230
g7
g20
sg9
g21
sg11
g226
sg13
S''
sasg12
(lp231
(dp232
g7
g8
sg9
g10
sg11
g4
sg13
S'12:15'
p233
sa(dp234
g7
g8
sg9
g10
sg11
g4
sg13
S'19:00'
p235
sa(dp236
g7
g8
sg9
g10
sg11
g4
sg13
S'01:30'
p237
sa(dp238
g7
g20
sg9
g21
sg11
g63
sg13
S'16:00'
p239
sa(dp240
g7
g20
sg9
g21
sg11
g63
sg13
S'23:30'
p241
sa(dp242
g7
g20
sg9
g21
sg11
g63
sg13
S'10:00'
p243
sa(dp244
g7
g8
sg9
g10
sg11
S'arugam'
p245
sg13
S'12:00'
p246
sa(dp247
g7
g8
sg9
g10
sg11
g245
sg13
S'04:15'
p248
sa(dp249
g7
g8
sg9
g10
sg11
g245
sg13
S''
sa(dp250
g7
g20
sg9
g21
sg11
S'pasikudah'
p251
sg13
S'16:30'
p252
sa(dp253
g7
g20
sg9
g21
sg11
g251
sg13
S'08:30'
p254
sa(dp255
g7
g20
sg9
g21
sg11
g251
sg13
S''
sasS'hatton'
p256
(lp257
(dp258
g7
g8
sg9
g10
sg11
S'nuwaraeliya'
p259
sg13
S'10:00'
p260
sa(dp261
g7
g8
sg9
g10
sg11
g259
sg13
S'13:00'
p262
sa(dp263
g7
g8
sg9
g10
sg11
g259
sg13
S'00:00'
p264
sa(dp265
g7
g8
sg9
g10
sg11
S'udawalawa'
p266
sg13
S'09:45'
p267
sa(dp268
g7
g8
sg9
g10
sg11
g266
sg13
S'13:45'
p269
sa(dp270
g7
g8
sg9
g10
sg11
g266
sg13
S'01:45'
p271
sa(dp272
g7
g8
sg9
g10
sg11
S'nuwaraeliya'
p273
sg13
S'14:15'
p274
sa(dp275
g7
g8
sg9
g10
sg11
g273
sg13
S'18:15'
p276
sa(dp277
g7
g8
sg9
g10
sg11
g273
sg13
S'06:15'
p278
sa(dp279
g7
g8
sg9
g10
sg11
S'nuwaraeliya'
p280
sg13
S'16:15'
p281
sa(dp282
g7
g8
sg9
g10
sg11
g280
sg13
S'20:15'
p283
sa(dp284
g7
g8
sg9
g10
sg11
g280
sg13
S'06:15'
p285
sa(dp286
g7
g8
sg9
g10
sg11
S'mirissa'
p287
sg13
S'09:45'
p288
sa(dp289
g7
g8
sg9
g10
sg11
g287
sg13
S'13:45'
p290
sa(dp291
g7
g8
sg9
g10
sg11
g287
sg13
S'23:45'
p292
sasS'nuwaraeliya'
p293
(lp294
(dp295
g7
g8
sg9
g10
sg11
S'kandy'
p296
sg13
S'11:45'
p297
sa(dp298
g7
g8
sg9
g10
sg11
g296
sg13
S'14:45'
p299
sa(dp300
g7
g8
sg9
g10
sg11
g296
sg13
S'01:45'
p301
sa(dp302
g7
g8
sg9
g10
sg11
S'hatton'
p303
sg13
S'08:00'
p304
sa(dp305
g7
g8
sg9
g10
sg11
g303
sg13
S'12:00'
p306
sa(dp307
g7
g8
sg9
g10
sg11
g303
sg13
S'00:00'
p308
sa(dp309
g7
g8
sg9
g10
sg11
S'hatton'
p310
sg13
S'08:00'
p311
sa(dp312
g7
g8
sg9
g10
sg11
g310
sg13
S'12:00'
p313
sa(dp314
g7
g8
sg9
g10
sg11
g310
sg13
S'22:00'
p315
sasS'kandy'
p316
(lp317
(dp318
g7
g8
sg9
g10
sg11
S'nuwara'
p319
sg13
S'14:30'
p320
sa(dp321
g7
g8
sg9
g10
sg11
g319
sg13
S'17:30'
p322
sa(dp323
g7
g8
sg9
g10
sg11
g319
sg13
S'04:30'
p324
sa(dp325
g7
g8
sg9
g10
sg11
S'dambula'
p326
sg13
S'14:45'
p327
sa(dp328
g7
g8
sg9
g10
sg11
g326
sg13
S'17:45'
p329
sa(dp330
g7
g8
sg9
g10
sg11
g326
sg13
S'04:45'
p331
sasS'hambantota'
p332
(lp333
(dp334
g7
g20
sg9
g21
sg11
S'udawalawe'
p335
sg13
S'07:30'
p336
sa(dp337
g7
g20
sg9
g21
sg11
g335
sg13
S'23:30'
p338
sa(dp339
g7
g20
sg9
g21
sg11
g335
sg13
S''
sa(dp340
g7
g8
sg9
g10
sg11
S'udawalawa'
p341
sg13
S'08:00'
p342
sa(dp343
g7
g8
sg9
g10
sg11
g341
sg13
S'12:00'
p344
sa(dp345
g7
g8
sg9
g10
sg11
g341
sg13
S'00:00'
p346
sasS'galle'
p347
(lp348
(dp349
g7
g8
sg9
g10
sg11
g47
sg13
S'20:30'
p350
sa(dp351
g7
g8
sg9
g10
sg11
g47
sg13
S'04:00'
p352
sa(dp353
g7
g8
sg9
g10
sg11
g47
sg13
S'14:30'
p354
sa(dp355
g7
g8
sg9
g10
sg11
S'mirissa'
p356
sg13
S'08:00'
p357
sa(dp358
g7
g8
sg9
g10
sg11
g356
sg13
S'12:00'
p359
sa(dp360
g7
g8
sg9
g10
sg11
g356
sg13
S'22:00'
p361
sasS'mirissa'
p362
(lp363
(dp364
g7
g8
sg9
g10
sg11
S'hatton'
p365
sg13
S'09:30'
p366
sa(dp367
g7
g8
sg9
g10
sg11
g365
sg13
S'13:30'
p368
sa(dp369
g7
g8
sg9
g10
sg11
g365
sg13
S'23:30'
p370
sa(dp371
g7
g8
sg9
g10
sg11
S'galle'
p372
sg13
S'16:30'
p373
sa(dp374
g7
g8
sg9
g10
sg11
g372
sg13
S'20:30'
p375
sa(dp376
g7
g8
sg9
g10
sg11
g372
sg13
S'06:30'
p377
sasg150
(lp378
(dp379
g7
g20
sg9
g21
sg11
g66
sg13
S'15:00'
p380
sa(dp381
g7
g20
sg9
g21
sg11
g66
sg13
S'22:30'
p382
sa(dp383
g7
g20
sg9
g21
sg11
g66
sg13
S'09:00'
p384
sa(dp385
g7
g8
sg9
g10
sg11
S'trinco'
p386
sg13
S'07:30'
p387
sa(dp388
g7
g8
sg9
g10
sg11
g386
sg13
S'23:30'
p389
sa(dp390
g7
g8
sg9
g10
sg11
g386
sg13
S''
sas.