ccollections
defaultdict
p1
(c__builtin__
list
p2
tRp3
S'pasikudah'
p4
(lp5
(lp6
(dp7
S'name'
p8
S'baticloa'
p9
sa(dp10
S'rupee'
p11
S'2500'
p12
sa(dp13
S'usd'
p14
S'17'
p15
sa(dp16
S'time'
p17
S'15:00'
p18
saa(lp19
(dp20
g8
g9
sa(dp21
g11
g12
sa(dp22
g14
g15
sa(dp23
g17
S'22:30'
p24
saa(lp25
(dp26
g8
g9
sa(dp27
g11
g12
sa(dp28
g14
g15
sa(dp29
g17
S'09:00'
p30
saa(lp31
(dp32
g8
S'baticloa'
p33
sa(dp34
g11
S'3500'
p35
sa(dp36
g14
S'23'
p37
sa(dp38
g17
S'11:00'
p39
saa(lp40
(dp41
g8
g33
sa(dp42
g11
g35
sa(dp43
g14
g37
sa(dp44
g17
S'03:15'
p45
saa(lp46
(dp47
g8
g33
sa(dp48
g11
g35
sa(dp49
g14
g37
sa(dp50
g17
S''
saa(lp51
(dp52
g8
S'trinco'
p53
sa(dp54
g11
g35
sa(dp55
g14
g37
sa(dp56
g17
S'17:30'
p57
saa(lp58
(dp59
g8
g53
sa(dp60
g11
g35
sa(dp61
g14
g37
sa(dp62
g17
S'09:30'
p63
saa(lp64
(dp65
g8
g53
sa(dp66
g11
g35
sa(dp67
g14
g37
sa(dp68
g17
S''
saasS'dambula'
p69
(lp70
(lp71
(dp72
g8
S'polonaruwa'
p73
sa(dp74
g11
g12
sa(dp75
g14
g15
sa(dp76
g17
S'08:00'
p77
saa(lp78
(dp79
g8
g73
sa(dp80
g11
g12
sa(dp81
g14
g15
sa(dp82
g17
S'14:45'
p83
saa(lp84
(dp85
g8
g73
sa(dp86
g11
g12
sa(dp87
g14
g15
sa(dp88
g17
S'21:15'
p89
saa(lp90
(dp91
g8
S'bia'
p92
sa(dp93
g11
g12
sa(dp94
g14
g15
sa(dp95
g17
S'00:30'
p96
saa(lp97
(dp98
g8
g92
sa(dp99
g11
g12
sa(dp100
g14
g15
sa(dp101
g17
S'08:00'
p102
saa(lp103
(dp104
g8
g92
sa(dp105
g11
g12
sa(dp106
g14
g15
sa(dp107
g17
S'18:30'
p108
saa(lp109
(dp110
g8
S'polonoruwa'
p111
sa(dp112
g11
g12
sa(dp113
g14
g15
sa(dp114
g17
S'09:45'
p115
saa(lp116
(dp117
g8
g111
sa(dp118
g11
g12
sa(dp119
g14
g15
sa(dp120
g17
S'16:30'
p121
saa(lp122
(dp123
g8
g111
sa(dp124
g11
g12
sa(dp125
g14
g15
sa(dp126
g17
S'23:00'
p127
saa(lp128
(dp129
g8
S'kandy'
p130
sa(dp131
g11
g12
sa(dp132
g14
g15
sa(dp133
g17
S'11:30'
p134
saa(lp135
(dp136
g8
g130
sa(dp137
g11
g12
sa(dp138
g14
g15
sa(dp139
g17
S'14:30'
p140
saa(lp141
(dp142
g8
g130
sa(dp143
g11
g12
sa(dp144
g14
g15
sa(dp145
g17
S'01:30'
p146
saa(lp147
(dp148
g8
S'polonaruwa'
p149
sa(dp150
g11
g12
sa(dp151
g14
g15
sa(dp152
g17
S'17:45'
p153
saa(lp154
(dp155
g8
g149
sa(dp156
g11
g12
sa(dp157
g14
g15
sa(dp158
g17
S'20:45'
p159
saa(lp160
(dp161
g8
g149
sa(dp162
g11
g12
sa(dp163
g14
g15
sa(dp164
g17
S'07:45'
p165
saa(lp166
(dp167
g8
g92
sa(dp168
g11
g12
sa(dp169
g14
g15
sa(dp170
g17
S'20:05'
p171
saa(lp172
(dp173
g8
g92
sa(dp174
g11
g12
sa(dp175
g14
g15
sa(dp176
g17
S'03:30'
p177
saa(lp178
(dp179
g8
g92
sa(dp180
g11
g12
sa(dp181
g14
g15
sa(dp182
g17
S'14:00'
p183
saasS'hikaduwa'
p184
(lp185
(lp186
(dp187
g8
S'gall'
p188
sa(dp189
g11
g12
sa(dp190
g14
g15
sa(dp191
g17
S'07:00'
p192
saa(lp193
(dp194
g8
g188
sa(dp195
g11
g12
sa(dp196
g14
g15
sa(dp197
g17
S'13:50'
p198
saa(lp199
(dp200
g8
g188
sa(dp201
g11
g12
sa(dp202
g14
g15
sa(dp203
g17
S'20:20'
p204
saa(lp205
(dp206
g8
g92
sa(dp207
g11
g12
sa(dp208
g14
g15
sa(dp209
g17
S'21:30'
p210
saa(lp211
(dp212
g8
g92
sa(dp213
g11
g12
sa(dp214
g14
g15
sa(dp215
g17
S'5:00'
p216
saa(lp217
(dp218
g8
g92
sa(dp219
g11
g12
sa(dp220
g14
g15
sa(dp221
g17
S'15:30'
p222
saasg73
(lp223
(lp224
(dp225
g8
S'trincomalee'
p226
sa(dp227
g11
g12
sa(dp228
g14
g15
sa(dp229
g17
S'09:45'
p230
saa(lp231
(dp232
g8
g226
sa(dp233
g11
g12
sa(dp234
g14
g15
sa(dp235
g17
S'16:30'
p236
saa(lp237
(dp238
g8
g226
sa(dp239
g11
g12
sa(dp240
g14
g15
sa(dp241
g17
S'23:00'
p242
saa(lp243
(dp244
g8
g69
sa(dp245
g11
g12
sa(dp246
g14
g15
sa(dp247
g17
S'20:30'
p248
saa(lp249
(dp250
g8
g69
sa(dp251
g11
g12
sa(dp252
g14
g15
sa(dp253
g17
S'04:00'
p254
saa(lp255
(dp256
g8
g69
sa(dp257
g11
g12
sa(dp258
g14
g15
sa(dp259
g17
S'14:30'
p260
saa(lp261
(dp262
g8
g9
sa(dp263
g11
g12
sa(dp264
g14
g15
sa(dp265
g17
S'09:45'
p266
saa(lp267
(dp268
g8
g9
sa(dp269
g11
g12
sa(dp270
g14
g15
sa(dp271
g17
S'16:30'
p272
saa(lp273
(dp274
g8
g9
sa(dp275
g11
g12
sa(dp276
g14
g15
sa(dp277
g17
S'23:00'
p278
saa(lp279
(dp280
g8
S'dambulla'
p281
sa(dp282
g11
g12
sa(dp283
g14
g15
sa(dp284
g17
S'18:15'
p285
saa(lp286
(dp287
g8
g281
sa(dp288
g11
g12
sa(dp289
g14
g15
sa(dp290
g17
S'01:45'
p291
saa(lp292
(dp293
g8
g281
sa(dp294
g11
g12
sa(dp295
g14
g15
sa(dp296
g17
S'12:15'
p297
saa(lp298
(dp299
g8
S'dambula'
p300
sa(dp301
g11
g12
sa(dp302
g14
g15
sa(dp303
g17
S'10:00'
p304
saa(lp305
(dp306
g8
g300
sa(dp307
g11
g12
sa(dp308
g14
g15
sa(dp309
g17
S'13:00'
p310
saa(lp311
(dp312
g8
g300
sa(dp313
g11
g12
sa(dp314
g14
g15
sa(dp315
g17
S'00:00'
p316
saasS'nuwara'
p317
(lp318
(lp319
(dp320
g8
S'hatton'
p321
sa(dp322
g11
g12
sa(dp323
g14
g15
sa(dp324
g17
S'17:30'
p325
saa(lp326
(dp327
g8
g321
sa(dp328
g11
g12
sa(dp329
g14
g15
sa(dp330
g17
S'20:30'
p331
saa(lp332
(dp333
g8
g321
sa(dp334
g11
g12
sa(dp335
g14
g15
sa(dp336
g17
S'07:30'
p337
saasS'trinco'
p338
(lp339
(lp340
(dp341
g8
S'pasikudha'
p342
sa(dp343
g11
g35
sa(dp344
g14
g37
sa(dp345
g17
S'08:30'
p346
saa(lp347
(dp348
g8
g342
sa(dp349
g11
g35
sa(dp350
g14
g37
sa(dp351
g17
S'00:45'
p352
saa(lp353
(dp354
g8
g342
sa(dp355
g11
g35
sa(dp356
g14
g37
sa(dp357
g17
S''
saa(lp358
(dp359
g8
S'nilaveli'
p360
sa(dp361
g11
g35
sa(dp362
g14
g37
sa(dp363
g17
S'20:45'
p364
saa(lp365
(dp366
g8
g360
sa(dp367
g11
g35
sa(dp368
g14
g37
sa(dp369
g17
S'12:45'
p370
saa(lp371
(dp372
g8
g360
sa(dp373
g11
g35
sa(dp374
g14
g37
sa(dp375
g17
S''
saasg226
(lp376
(lp377
(dp378
g8
S'nilaveli'
p379
sa(dp380
g11
g12
sa(dp381
g14
g15
sa(dp382
g17
S'12:45'
p383
saa(lp384
(dp385
g8
g379
sa(dp386
g11
g12
sa(dp387
g14
g15
sa(dp388
g17
S'19:30'
p389
saa(lp390
(dp391
g8
g379
sa(dp392
g11
g12
sa(dp393
g14
g15
sa(dp394
g17
S'02:00'
p395
saa(lp396
(dp397
g8
g111
sa(dp398
g11
g12
sa(dp399
g14
g15
sa(dp400
g17
S'18:45'
p401
saa(lp402
(dp403
g8
g111
sa(dp404
g11
g12
sa(dp405
g14
g15
sa(dp406
g17
S'02:15'
p407
saa(lp408
(dp409
g8
g111
sa(dp410
g11
g12
sa(dp411
g14
g15
sa(dp412
g17
S'12:45'
p413
saasg92
(lp414
(lp415
(dp416
g8
g184
sa(dp417
g11
g12
sa(dp418
g14
g15
sa(dp419
g17
S'03:40'
p420
saa(lp421
(dp422
g8
g184
sa(dp423
g11
g12
sa(dp424
g14
g15
sa(dp425
g17
S'10:30'
p426
saa(lp427
(dp428
g8
g184
sa(dp429
g11
g12
sa(dp430
g14
g15
sa(dp431
g17
S'17:00'
p432
saa(lp433
(dp434
g8
g69
sa(dp435
g11
g12
sa(dp436
g14
g15
sa(dp437
g17
S'03:40'
p438
saa(lp439
(dp440
g8
g69
sa(dp441
g11
g12
sa(dp442
g14
g15
sa(dp443
g17
S'10:30'
p444
saa(lp445
(dp446
g8
g69
sa(dp447
g11
g12
sa(dp448
g14
g15
sa(dp449
g17
S'17:00'
p450
saa(lp451
(dp452
g8
g69
sa(dp453
g11
g12
sa(dp454
g14
g15
sa(dp455
g17
S'03:40'
p456
saa(lp457
(dp458
g8
g69
sa(dp459
g11
g12
sa(dp460
g14
g15
sa(dp461
g17
S'10:30'
p462
saa(lp463
(dp464
g8
g69
sa(dp465
g11
g12
sa(dp466
g14
g15
sa(dp467
g17
S'17:00'
p468
saasS'galle'
p469
(lp470
(lp471
(dp472
g8
g184
sa(dp473
g11
g12
sa(dp474
g14
g15
sa(dp475
g17
S'20:30'
p476
saa(lp477
(dp478
g8
g184
sa(dp479
g11
g12
sa(dp480
g14
g15
sa(dp481
g17
S'04:00'
p482
saa(lp483
(dp484
g8
g184
sa(dp485
g11
g12
sa(dp486
g14
g15
sa(dp487
g17
S'14:30'
p488
saa(lp489
(dp490
g8
S'mirissa'
p491
sa(dp492
g11
g12
sa(dp493
g14
g15
sa(dp494
g17
S'08:00'
p495
saa(lp496
(dp497
g8
g491
sa(dp498
g11
g12
sa(dp499
g14
g15
sa(dp500
g17
S'12:00'
p501
saa(lp502
(dp503
g8
g491
sa(dp504
g11
g12
sa(dp505
g14
g15
sa(dp506
g17
S'22:00'
p507
saasS'arugam'
p508
(lp509
(lp510
(dp511
g8
S'udawalawe'
p512
sa(dp513
g11
g35
sa(dp514
g14
g37
sa(dp515
g17
S'15:15'
p516
saa(lp517
(dp518
g8
g512
sa(dp519
g11
g35
sa(dp520
g14
g37
sa(dp521
g17
S'07:30'
p522
saa(lp523
(dp524
g8
g512
sa(dp525
g11
g35
sa(dp526
g14
g37
sa(dp527
g17
S''
saa(lp528
(dp529
g8
S'baticloa'
p530
sa(dp531
g11
g35
sa(dp532
g14
g37
sa(dp533
g17
S'13:15'
p534
saa(lp535
(dp536
g8
g530
sa(dp537
g11
g35
sa(dp538
g14
g37
sa(dp539
g17
S'05:15'
p540
saa(lp541
(dp542
g8
g530
sa(dp543
g11
g35
sa(dp544
g14
g37
sa(dp545
g17
S''
saasg9
(lp546
(lp547
(dp548
g8
g4
sa(dp549
g11
g12
sa(dp550
g14
g15
sa(dp551
g17
S'12:15'
p552
saa(lp553
(dp554
g8
g4
sa(dp555
g11
g12
sa(dp556
g14
g15
sa(dp557
g17
S'19:00'
p558
saa(lp559
(dp560
g8
g4
sa(dp561
g11
g12
sa(dp562
g14
g15
sa(dp563
g17
S'01:30'
p564
saa(lp565
(dp566
g8
g73
sa(dp567
g11
g35
sa(dp568
g14
g37
sa(dp569
g17
S'16:00'
p570
saa(lp571
(dp572
g8
g73
sa(dp573
g11
g35
sa(dp574
g14
g37
sa(dp575
g17
S'23:30'
p576
saa(lp577
(dp578
g8
g73
sa(dp579
g11
g35
sa(dp580
g14
g37
sa(dp581
g17
S'10:00'
p582
saa(lp583
(dp584
g8
S'arugam'
p585
sa(dp586
g11
g12
sa(dp587
g14
g15
sa(dp588
g17
S'12:00'
p589
saa(lp590
(dp591
g8
g585
sa(dp592
g11
g12
sa(dp593
g14
g15
sa(dp594
g17
S'04:15'
p595
saa(lp596
(dp597
g8
g585
sa(dp598
g11
g12
sa(dp599
g14
g15
sa(dp600
g17
S''
saa(lp601
(dp602
g8
S'pasikudah'
p603
sa(dp604
g11
g35
sa(dp605
g14
g37
sa(dp606
g17
S'16:30'
p607
saa(lp608
(dp609
g8
g603
sa(dp610
g11
g35
sa(dp611
g14
g37
sa(dp612
g17
S'08:30'
p613
saa(lp614
(dp615
g8
g603
sa(dp616
g11
g35
sa(dp617
g14
g37
sa(dp618
g17
S''
saasS'hatton'
p619
(lp620
(lp621
(dp622
g8
S'nuwaraeliya'
p623
sa(dp624
g11
g12
sa(dp625
g14
g15
sa(dp626
g17
S'10:00'
p627
saa(lp628
(dp629
g8
g623
sa(dp630
g11
g12
sa(dp631
g14
g15
sa(dp632
g17
S'13:00'
p633
saa(lp634
(dp635
g8
g623
sa(dp636
g11
g12
sa(dp637
g14
g15
sa(dp638
g17
S'00:00'
p639
saa(lp640
(dp641
g8
S'udawalawa'
p642
sa(dp643
g11
g12
sa(dp644
g14
g15
sa(dp645
g17
S'09:45'
p646
saa(lp647
(dp648
g8
g642
sa(dp649
g11
g12
sa(dp650
g14
g15
sa(dp651
g17
S'13:45'
p652
saa(lp653
(dp654
g8
g642
sa(dp655
g11
g12
sa(dp656
g14
g15
sa(dp657
g17
S'01:45'
p658
saa(lp659
(dp660
g8
S'nuwaraeliya'
p661
sa(dp662
g11
g12
sa(dp663
g14
g15
sa(dp664
g17
S'14:15'
p665
saa(lp666
(dp667
g8
g661
sa(dp668
g11
g12
sa(dp669
g14
g15
sa(dp670
g17
S'18:15'
p671
saa(lp672
(dp673
g8
g661
sa(dp674
g11
g12
sa(dp675
g14
g15
sa(dp676
g17
S'06:15'
p677
saa(lp678
(dp679
g8
S'nuwaraeliya'
p680
sa(dp681
g11
g12
sa(dp682
g14
g15
sa(dp683
g17
S'16:15'
p684
saa(lp685
(dp686
g8
g680
sa(dp687
g11
g12
sa(dp688
g14
g15
sa(dp689
g17
S'20:15'
p690
saa(lp691
(dp692
g8
g680
sa(dp693
g11
g12
sa(dp694
g14
g15
sa(dp695
g17
S'06:15'
p696
saa(lp697
(dp698
g8
S'mirissa'
p699
sa(dp700
g11
g12
sa(dp701
g14
g15
sa(dp702
g17
S'09:45'
p703
saa(lp704
(dp705
g8
g699
sa(dp706
g11
g12
sa(dp707
g14
g15
sa(dp708
g17
S'13:45'
p709
saa(lp710
(dp711
g8
g699
sa(dp712
g11
g12
sa(dp713
g14
g15
sa(dp714
g17
S'23:45'
p715
saasS'nuwaraeliya'
p716
(lp717
(lp718
(dp719
g8
S'kandy'
p720
sa(dp721
g11
g12
sa(dp722
g14
g15
sa(dp723
g17
S'11:45'
p724
saa(lp725
(dp726
g8
g720
sa(dp727
g11
g12
sa(dp728
g14
g15
sa(dp729
g17
S'14:45'
p730
saa(lp731
(dp732
g8
g720
sa(dp733
g11
g12
sa(dp734
g14
g15
sa(dp735
g17
S'01:45'
p736
saa(lp737
(dp738
g8
S'hatton'
p739
sa(dp740
g11
g12
sa(dp741
g14
g15
sa(dp742
g17
S'08:00'
p743
saa(lp744
(dp745
g8
g739
sa(dp746
g11
g12
sa(dp747
g14
g15
sa(dp748
g17
S'12:00'
p749
saa(lp750
(dp751
g8
g739
sa(dp752
g11
g12
sa(dp753
g14
g15
sa(dp754
g17
S'00:00'
p755
saa(lp756
(dp757
g8
S'hatton'
p758
sa(dp759
g11
g12
sa(dp760
g14
g15
sa(dp761
g17
S'08:00'
p762
saa(lp763
(dp764
g8
g758
sa(dp765
g11
g12
sa(dp766
g14
g15
sa(dp767
g17
S'12:00'
p768
saa(lp769
(dp770
g8
g758
sa(dp771
g11
g12
sa(dp772
g14
g15
sa(dp773
g17
S'22:00'
p774
saasS'kandy'
p775
(lp776
(lp777
(dp778
g8
S'nuwara'
p779
sa(dp780
g11
g12
sa(dp781
g14
g15
sa(dp782
g17
S'14:30'
p783
saa(lp784
(dp785
g8
g779
sa(dp786
g11
g12
sa(dp787
g14
g15
sa(dp788
g17
S'17:30'
p789
saa(lp790
(dp791
g8
g779
sa(dp792
g11
g12
sa(dp793
g14
g15
sa(dp794
g17
S'04:30'
p795
saa(lp796
(dp797
g8
S'dambula'
p798
sa(dp799
g11
g12
sa(dp800
g14
g15
sa(dp801
g17
S'14:45'
p802
saa(lp803
(dp804
g8
g798
sa(dp805
g11
g12
sa(dp806
g14
g15
sa(dp807
g17
S'17:45'
p808
saa(lp809
(dp810
g8
g798
sa(dp811
g11
g12
sa(dp812
g14
g15
sa(dp813
g17
S'04:45'
p814
saasS'hambantota'
p815
(lp816
(lp817
(dp818
g8
S'udawalawe'
p819
sa(dp820
g11
g35
sa(dp821
g14
g37
sa(dp822
g17
S'07:30'
p823
saa(lp824
(dp825
g8
g819
sa(dp826
g11
g35
sa(dp827
g14
g37
sa(dp828
g17
S'23:30'
p829
saa(lp830
(dp831
g8
g819
sa(dp832
g11
g35
sa(dp833
g14
g37
sa(dp834
g17
S''
saa(lp835
(dp836
g8
S'udawalawa'
p837
sa(dp838
g11
g12
sa(dp839
g14
g15
sa(dp840
g17
S'08:00'
p841
saa(lp842
(dp843
g8
g837
sa(dp844
g11
g12
sa(dp845
g14
g15
sa(dp846
g17
S'12:00'
p847
saa(lp848
(dp849
g8
g837
sa(dp850
g11
g12
sa(dp851
g14
g15
sa(dp852
g17
S'00:00'
p853
saasS'udawalawa'
p854
(lp855
(lp856
(dp857
g8
S'hambantota'
p858
sa(dp859
g11
g35
sa(dp860
g14
g37
sa(dp861
g17
S'19:00'
p862
saa(lp863
(dp864
g8
g858
sa(dp865
g11
g35
sa(dp866
g14
g37
sa(dp867
g17
S'11:15'
p868
saa(lp869
(dp870
g8
g858
sa(dp871
g11
g35
sa(dp872
g14
g37
sa(dp873
g17
S''
saa(lp874
(dp875
g8
S'arugam'
p876
sa(dp877
g11
g35
sa(dp878
g14
g37
sa(dp879
g17
S'09:15'
p880
saa(lp881
(dp882
g8
g876
sa(dp883
g11
g35
sa(dp884
g14
g37
sa(dp885
g17
S'01:15'
p886
saa(lp887
(dp888
g8
g876
sa(dp889
g11
g35
sa(dp890
g14
g37
sa(dp891
g17
S''
saa(lp892
(dp893
g8
S'hambantota'
p894
sa(dp895
g11
g12
sa(dp896
g14
g15
sa(dp897
g17
S'14:15'
p898
saa(lp899
(dp900
g8
g894
sa(dp901
g11
g12
sa(dp902
g14
g15
sa(dp903
g17
S'18:15'
p904
saa(lp905
(dp906
g8
g894
sa(dp907
g11
g12
sa(dp908
g14
g15
sa(dp909
g17
S'06:15'
p910
saa(lp911
(dp912
g8
S'hatton'
p913
sa(dp914
g11
g12
sa(dp915
g14
g15
sa(dp916
g17
S'09:45'
p917
saa(lp918
(dp919
g8
g913
sa(dp920
g11
g12
sa(dp921
g14
g15
sa(dp922
g17
S'13:45'
p923
saa(lp924
(dp925
g8
g913
sa(dp926
g11
g12
sa(dp927
g14
g15
sa(dp928
g17
S'01:45'
p929
saasS'mirissa'
p930
(lp931
(lp932
(dp933
g8
S'hatton'
p934
sa(dp935
g11
g12
sa(dp936
g14
g15
sa(dp937
g17
S'09:30'
p938
saa(lp939
(dp940
g8
g934
sa(dp941
g11
g12
sa(dp942
g14
g15
sa(dp943
g17
S'13:30'
p944
saa(lp945
(dp946
g8
g934
sa(dp947
g11
g12
sa(dp948
g14
g15
sa(dp949
g17
S'23:30'
p950
saa(lp951
(dp952
g8
S'galle'
p953
sa(dp954
g11
g12
sa(dp955
g14
g15
sa(dp956
g17
S'16:30'
p957
saa(lp958
(dp959
g8
g953
sa(dp960
g11
g12
sa(dp961
g14
g15
sa(dp962
g17
S'20:30'
p963
saa(lp964
(dp965
g8
g953
sa(dp966
g11
g12
sa(dp967
g14
g15
sa(dp968
g17
S'06:30'
p969
saasg379
(lp970
(lp971
(dp972
g8
g226
sa(dp973
g11
g35
sa(dp974
g14
g37
sa(dp975
g17
S'15:00'
p976
saa(lp977
(dp978
g8
g226
sa(dp979
g11
g35
sa(dp980
g14
g37
sa(dp981
g17
S'22:30'
p982
saa(lp983
(dp984
g8
g226
sa(dp985
g11
g35
sa(dp986
g14
g37
sa(dp987
g17
S'09:00'
p988
saa(lp989
(dp990
g8
S'trinco'
p991
sa(dp992
g11
g12
sa(dp993
g14
g15
sa(dp994
g17
S'07:30'
p995
saa(lp996
(dp997
g8
g991
sa(dp998
g11
g12
sa(dp999
g14
g15
sa(dp1000
g17
S'23:30'
p1001
saa(lp1002
(dp1003
g8
g991
sa(dp1004
g11
g12
sa(dp1005
g14
g15
sa(dp1006
g17
S''
saas.